target datalayout = "e-m:e-p270:32:32-p271:32:32-p272:64:64-i64:64-i128:128-f80:128-n8:16:32:64-S128"
target triple = "x86_64-pc-linux-gnu"

%struct.SDL_InitState = type { %struct.SDL_AtomicInt, i64, ptr }
%struct.SDL_AtomicInt = type { i32 }
%struct.SDL_AtomicU32 = type { i32 }
%struct.SDL_Properties = type { ptr, ptr }

@SDL_properties_init = internal global %struct.SDL_InitState zeroinitializer, align 8
@SDL_properties = internal global ptr null, align 8
@SDL_global_properties = internal global %struct.SDL_AtomicU32 zeroinitializer, align 4

; Function Attrs: nounwind uwtable
define internal void @SDL_FreeProperties(ptr noundef %0) #0 {
  %2 = alloca ptr, align 8
  store ptr %0, ptr %2, align 8
  %3 = load ptr, ptr %2, align 8
  %4 = icmp ne ptr %3, null
  br i1 %4, label %5, label %13

5:                                                ; preds = %1
  %6 = load ptr, ptr %2, align 8
  %7 = getelementptr inbounds nuw %struct.SDL_Properties, ptr %6, i32 0, i32 0
  %8 = load ptr, ptr %7, align 8
  call void @SDL_DestroyHashTable(ptr noundef %8)
  %9 = load ptr, ptr %2, align 8
  %10 = getelementptr inbounds nuw %struct.SDL_Properties, ptr %9, i32 0, i32 1
  %11 = load ptr, ptr %10, align 8
  call void @SDL_DestroyMutex_REAL(ptr noundef %11)
  %12 = load ptr, ptr %2, align 8
  call void @SDL_free_REAL(ptr noundef %12)
  br label %13

13:                                               ; preds = %5, %1
  ret void
}

; Function Attrs: nounwind uwtable
define hidden void @SDL_DestroyProperties_REAL(i32 noundef %0) #0 {
  %2 = alloca i32, align 4
  %3 = alloca ptr, align 8
  store i32 %0, ptr %2, align 4
  %4 = load i32, ptr %2, align 4
  %5 = icmp ne i32 %4, 0
  br i1 %5, label %6, label %20

6:                                                ; preds = %1
  call void @llvm.lifetime.start.p0(i64 8, ptr %3) #6
  store ptr null, ptr %3, align 8
  %7 = load ptr, ptr @SDL_properties, align 8
  %8 = load i32, ptr %2, align 4
  %9 = zext i32 %8 to i64
  %10 = inttoptr i64 %9 to ptr
  %11 = call zeroext i1 @SDL_FindInHashTable(ptr noundef %7, ptr noundef %10, ptr noundef %3)
  br i1 %11, label %12, label %19

12:                                               ; preds = %6
  %13 = load ptr, ptr %3, align 8
  call void @SDL_FreeProperties(ptr noundef %13)
  %14 = load ptr, ptr @SDL_properties, align 8
  %15 = load i32, ptr %2, align 4
  %16 = zext i32 %15 to i64
  %17 = inttoptr i64 %16 to ptr
  %18 = call zeroext i1 @SDL_RemoveFromHashTable(ptr noundef %14, ptr noundef %17)
  br label %19

19:                                               ; preds = %12, %6
  call void @llvm.lifetime.end.p0(i64 8, ptr %3) #6
  br label %20

20:                                               ; preds = %19, %1
  ret void
}

; Function Attrs: nounwind uwtable
define hidden void @SDL_QuitProperties() #0 {
  %1 = alloca i32, align 4
  %2 = alloca ptr, align 8
  %3 = call zeroext i1 @SDL_ShouldQuit_REAL(ptr noundef @SDL_properties_init)
  br i1 %3, label %5, label %4

4:                                                ; preds = %0
  br label %22

5:                                                ; preds = %0
  call void @llvm.lifetime.start.p0(i64 4, ptr %1) #6
  br label %6

6:                                                ; preds = %8, %5
  %7 = call i32 @SDL_GetAtomicU32_REAL(ptr noundef @SDL_global_properties)
  store i32 %7, ptr %1, align 4
  br label %8

8:                                                ; preds = %6
  %9 = load i32, ptr %1, align 4
  %10 = call zeroext i1 @SDL_CompareAndSwapAtomicU32_REAL(ptr noundef @SDL_global_properties, i32 noundef %9, i32 noundef 0)
  %11 = xor i1 %10, true
  br i1 %11, label %6, label %12, !llvm.loop !5

12:                                               ; preds = %8
  %13 = load i32, ptr %1, align 4
  %14 = icmp ne i32 %13, 0
  br i1 %14, label %15, label %17

15:                                               ; preds = %12
  %16 = load i32, ptr %1, align 4
  call void @SDL_DestroyProperties_REAL(i32 noundef %16)
  br label %17

17:                                               ; preds = %15, %12
  call void @llvm.lifetime.start.p0(i64 8, ptr %2) #6
  %18 = load ptr, ptr @SDL_properties, align 8
  store ptr %18, ptr %2, align 8
  store ptr null, ptr @SDL_properties, align 8
  %19 = load ptr, ptr %2, align 8
  %20 = call zeroext i1 @SDL_IterateHashTable(ptr noundef %19, ptr noundef @FreeOneProperties, ptr noundef null)
  %21 = load ptr, ptr %2, align 8
  call void @SDL_DestroyHashTable(ptr noundef %21)
  call void @SDL_SetInitialized_REAL(ptr noundef @SDL_properties_init, i1 noundef zeroext false)
  call void @llvm.lifetime.end.p0(i64 8, ptr %2) #6
  call void @llvm.lifetime.end.p0(i64 4, ptr %1) #6
  br label %22

22:                                               ; preds = %17, %4
  ret void
}