; Function Attrs: nounwind uwtable
define hidden void @SDL_QuitProperties() local_unnamed_addr #0 {
  %1 = alloca ptr, align 8
  %2 = tail call zeroext i1 @SDL_ShouldQuit_REAL(ptr noundef nonnull @SDL_properties_init) #6
  br i1 %2, label %.preheader, label %22

.preheader:                                       ; preds = %0, %.preheader
  %3 = tail call i32 @SDL_GetAtomicU32_REAL(ptr noundef nonnull @SDL_global_properties) #6
  %4 = tail call zeroext i1 @SDL_CompareAndSwapAtomicU32_REAL(ptr noundef nonnull @SDL_global_properties, i32 noundef %3, i32 noundef 0) #6
  br i1 %4, label %5, label %.preheader, !llvm.loop !3

5:                                                ; preds = %.preheader
  %.not = icmp eq i32 %3, 0
  br i1 %.not, label %19, label %6

6:                                                ; preds = %5
  call void @llvm.lifetime.start.p0(i64 8, ptr nonnull %1) #6
  store ptr null, ptr %1, align 8
  %7 = load ptr, ptr @SDL_properties, align 8
  %8 = zext i32 %3 to i64
  %9 = inttoptr i64 %8 to ptr
  %10 = call zeroext i1 @SDL_FindInHashTable(ptr noundef %7, ptr noundef nonnull %9, ptr noundef nonnull %1) #6
  br i1 %10, label %11, label %SDL_DestroyProperties_REAL.exit

11:                                               ; preds = %6
  %12 = load ptr, ptr %1, align 8
  %.not.i.i = icmp eq ptr %12, null
  br i1 %.not.i.i, label %SDL_FreeProperties.exit.i, label %13

13:                                               ; preds = %11
  %14 = load ptr, ptr %12, align 8
  call void @SDL_DestroyHashTable(ptr noundef %14) #6
  %15 = getelementptr inbounds nuw i8, ptr %12, i64 8
  %16 = load ptr, ptr %15, align 8
  call void @SDL_DestroyMutex_REAL(ptr noundef %16) #6
  call void @SDL_free_REAL(ptr noundef nonnull %12) #6
  br label %SDL_FreeProperties.exit.i

SDL_FreeProperties.exit.i:                        ; preds = %13, %11
  %17 = load ptr, ptr @SDL_properties, align 8
  %18 = call zeroext i1 @SDL_RemoveFromHashTable(ptr noundef %17, ptr noundef nonnull %9) #6
  br label %SDL_DestroyProperties_REAL.exit

SDL_DestroyProperties_REAL.exit:                  ; preds = %6, %SDL_FreeProperties.exit.i
  call void @llvm.lifetime.end.p0(i64 8, ptr nonnull %1) #6
  br label %19

19:                                               ; preds = %SDL_DestroyProperties_REAL.exit, %5
  %20 = load ptr, ptr @SDL_properties, align 8
  store ptr null, ptr @SDL_properties, align 8
  %21 = call zeroext i1 @SDL_IterateHashTable(ptr noundef %20, ptr noundef nonnull @FreeOneProperties, ptr noundef null) #6
  call void @SDL_DestroyHashTable(ptr noundef %20) #6
  call void @SDL_SetInitialized_REAL(ptr noundef nonnull @SDL_properties_init, i1 noundef zeroext false) #6
  br label %22

22:                                               ; preds = %0, %19
  ret void
}